ccopy_reg
_reconstructor
p0
(ctp.client.ChangeDict
ChangeDict
p1
c__builtin__
dict
p2
(dp3
I0
g0
(ctp.netlib.objects.ObjectExtra.Universe
Universe
p4
c__builtin__
object
p5
Ntp6
Rp7
(dp8
S'_type'
p9
I7
sS'modify_time'
p10
cdatetime
datetime
p11
(S'\x07\xd8\x07\x04\x0c(\x00\x00\x00\x00'
p12
tp13
Rp14
sS'protocol'
p15
S'TP03'
p16
sS'name'
p17
VThe Universe
p18
sS'sequence'
p19
I19
sS'contains'
p20
(lp21
I1
asS'pos'
p22
(I0
I0
I0
tp23
sS'_subtype'
p24
I0
sS'turn'
p25
I0
sS'length'
p26
I116
sS'order_types'
p27
(lp28
sS'vel'
p29
(I0
I0
I0
tp30
sS'order_number'
p31
I0
sS'id'
p32
I0
sS'size'
p33
L1000000000000L
sbsI1
g0
(ctp.netlib.objects.ObjectExtra.Galaxy
Galaxy
p34
g5
Ntp35
Rp36
(dp37
g9
I7
sg10
g11
(S'\x07\xd8\x07\x04\x0c(\x00\x00\x00\x00'
p38
tp39
Rp40
sg15
g16
sg17
VMilky Way Galaxy
p41
sS'parent'
p42
I0
sg19
I19
sg20
(lp43
I2
aI3
aI4
aI10
aI12
aI13
aI16
aI18
aI19
aI20
aI21
aI24
aI26
aI28
aI29
aI31
aI32
aI35
aI36
aI39
aI42
aI43
aI45
aI47
aI49
aI50
aI52
aI54
asg22
(I0
I-6000
I0
tp44
sg24
I1
sg26
I224
sg27
(lp45
sg29
(I0
I0
I0
tp46
sg31
I0
sg32
I1
sg33
L100000000000L
sbsI2
g0
(ctp.netlib.objects.ObjectExtra.StarSystem
StarSystem
p47
g5
Ntp48
Rp49
(dp50
g9
I7
sg10
g11
(S'\x07\xd8\x07\x04\x0c(\x00\x00\x00\x00'
p51
tp52
Rp53
sg15
g16
sg17
VSol/Terra System
p54
sg42
I1
sg19
I19
sg20
(lp55
I5
aI6
aI7
asg22
(L3000000000L
I2000000000
I0
tp56
sg24
I2
sg26
I124
sg27
(lp57
sS'planets'
p58
I3
sg29
(I0
I0
I0
tp59
sg31
I0
sg32
I2
sg33
I60000
sbsI3
g0
(g47
g5
Ntp60
Rp61
(dp62
g9
I7
sg10
g11
(S'\x07\xd8\x07\x04\x0c(\x00\x00\x00\x00'
p63
tp64
Rp65
sg15
g16
sg17
VAlpha Centauri System
p66
sg42
I1
sg19
I19
sg20
(lp67
I8
asg22
(I-1500000000
I1500000000
I0
tp68
sg24
I2
sg26
I121
sg27
(lp69
sg58
I1
sg29
(I0
I0
I0
tp70
sg31
I0
sg32
I3
sg33
I90000
sbsI4
g0
(g47
g5
Ntp71
Rp72
(dp73
g9
I7
sg10
g11
(S'\x07\xd8\x07\x04\x0c(\x00\x00\x00\x00'
p74
tp75
Rp76
sg15
g16
sg17
VSirius System
p77
sg42
I1
sg19
I19
sg20
(lp78
I9
asg22
(I-250000000
L-4000000000L
I0
tp79
sg24
I2
sg26
I113
sg27
(lp80
sg58
I1
sg29
(I0
I0
I0
tp81
sg31
I0
sg32
I4
sg33
I60000
sbsI5
g0
(ctp.netlib.objects.ObjectExtra.Planet
Planet
p82
g5
Ntp83
Rp84
(dp85
S'index'
p86
I1
sg9
I7
sg10
g11
(S'\x07\xd8\x07\x04\x0c(\x00\x00\x00\x00'
p87
tp88
Rp89
sg15
g16
sg17
VEarth/Terra
p90
sg42
I2
sg19
I19
sg20
(lp91
sg22
(L3000014960L
I2000000000
I0
tp92
sg24
I3
sg26
I115
sg27
(lp93
sS'owner'
p94
I-1
sg29
(I0
I0
I0
tp95
sg31
I0
sg32
I5
sS'resources'
p96
(lp97
sg33
I2
sbsI6
g0
(g82
g5
Ntp98
Rp99
(dp100
g86
I2
sg9
I7
sg10
g11
(S'\x07\xd8\x07\x04\x0c(\x00\x00\x00\x00'
p101
tp102
Rp103
sg15
g16
sg17
VVenus
p104
sg42
I2
sg19
I19
sg20
(lp105
sg22
(L3000000000L
I2000010800
I0
tp106
sg24
I3
sg26
I109
sg27
(lp107
sg94
I-1
sg29
(I0
I0
I0
tp108
sg31
I0
sg32
I6
sg96
(lp109
sg33
I2
sbsI7
g0
(g82
g5
Ntp110
Rp111
(dp112
g86
I3
sg9
I7
sg10
g11
(S'\x07\xd8\x07\x04\x0c(\x00\x00\x00\x00'
p113
tp114
Rp115
sg15
g16
sg17
VMars
p116
sg42
I2
sg19
I19
sg20
(lp117
sg22
(L2999977210L
I2000000000
I0
tp118
sg24
I3
sg26
I108
sg27
(lp119
sg94
I-1
sg29
(I0
I0
I0
tp120
sg31
I0
sg32
I7
sg96
(lp121
sg33
I2
sbsI8
g0
(g82
g5
Ntp122
Rp123
(dp124
g86
I1
sg9
I7
sg10
g11
(S'\x07\xd8\x07\x04\x0c(\x00\x00\x00\x00'
p125
tp126
Rp127
sg15
g16
sg17
VAlpha Centauri Prime
p128
sg42
I3
sg19
I19
sg20
(lp129
sg22
(I-1500006300
I1500078245
I0
tp130
sg24
I3
sg26
I124
sg27
(lp131
sg94
I-1
sg29
(I0
I0
I0
tp132
sg31
I0
sg32
I8
sg96
(lp133
sg33
I2
sbsI9
g0
(g82
g5
Ntp134
Rp135
(dp136
g86
I1
sg9
I7
sg10
g11
(S'\x07\xd8\x07\x04\x0c(\x00\x00\x00\x00'
p137
tp138
Rp139
sg15
g16
sg17
VSirius 1
p140
sg42
I4
sg19
I19
sg20
(lp141
sg22
(I-249954075
L-4000034262L
I0
tp142
sg24
I3
sg26
I112
sg27
(lp143
sg94
I-1
sg29
(I0
I0
I0
tp144
sg31
I0
sg32
I9
sg96
(lp145
sg33
I2
sbsI10
g0
(g47
g5
Ntp146
Rp147
(dp148
g9
I7
sg10
g11
(S'\x07\xd8\x07\x04\x0c(\x00\x00\x00\x00'
p149
tp150
Rp151
sg15
g16
sg17
VIllatis
p152
sg42
I1
sg19
I19
sg20
(lp153
I11
asg22
(L3191000000L
L3646000000L
I0
tp154
sg24
I2
sg26
I107
sg27
(lp155
sg58
I1
sg29
(I0
I0
I0
tp156
sg31
I0
sg32
I10
sg33
I60000
sbsI11
g0
(g82
g5
Ntp157
Rp158
(dp159
g86
I1
sg9
I7
sg10
g11
(S'\x07\xd8\x07\x04\x0c(\x00\x00\x00\x00'
p160
tp161
Rp162
sg15
g16
sg17
VIllatis 1
p163
sg42
I10
sg19
I19
sg20
(lp164
sg22
(L3191040000L
L3645965000L
I0
tp165
sg24
I3
sg26
I113
sg27
(lp166
sg94
I-1
sg29
(I0
I0
I0
tp167
sg31
I0
sg32
I11
sg96
(lp168
sg33
I2
sbsI12
g0
(g47
g5
Ntp169
Rp170
(dp171
g9
I7
sg10
g11
(S'\x07\xd8\x07\x04\x0c(\x00\x00\x00\x00'
p172
tp173
Rp174
sg15
g16
sg17
VLast Chance
p175
sg42
I1
sg19
I19
sg20
(lp176
sg22
(I1165000000
I879000000
I0
tp177
sg24
I2
sg26
I107
sg27
(lp178
sg29
(I0
I0
I0
tp179
sg31
I0
sg32
I12
sg33
I0
sbsI13
g0
(g47
g5
Ntp180
Rp181
(dp182
g9
I7
sg10
g11
(S'\x07\xd8\x07\x04\x0c(\x00\x00\x00\x00'
p183
tp184
Rp185
sg15
g16
sg17
VKelper
p186
sg42
I1
sg19
I19
sg20
(lp187
I14
aI15
asg22
(L3275000000L
L2165000000L
I0
tp188
sg24
I2
sg26
I110
sg27
(lp189
sg58
I2
sg29
(I0
I0
I0
tp190
sg31
I0
sg32
I13
sg33
I120000
sbsI14
g0
(g82
g5
Ntp191
Rp192
(dp193
g86
I1
sg9
I7
sg10
g11
(S'\x07\xd8\x07\x04\x0c(\x00\x00\x00\x00'
p194
tp195
Rp196
sg15
g16
sg17
VKelper 1
p197
sg42
I13
sg19
I19
sg20
(lp198
sg22
(L3275040000L
L2164965000L
I0
tp199
sg24
I3
sg26
I112
sg27
(lp200
sg94
I-1
sg29
(I0
I0
I0
tp201
sg31
I0
sg32
I14
sg96
(lp202
sg33
I2
sbsI15
g0
(g82
g5
Ntp203
Rp204
(dp205
g86
I2
sg9
I7
sg10
g11
(S'\x07\xd8\x07\x04\x0c(\x00\x00\x00\x00'
p206
tp207
Rp208
sg15
g16
sg17
VKelper 2
p209
sg42
I13
sg19
I19
sg20
(lp210
sg22
(L3275080000L
L2164930000L
I0
tp211
sg24
I3
sg26
I112
sg27
(lp212
sg94
I-1
sg29
(I0
I0
I0
tp213
sg31
I0
sg32
I15
sg96
(lp214
sg33
I2
sbsI16
g0
(g47
g5
Ntp215
Rp216
(dp217
g9
I7
sg10
g11
(S'\x07\xd8\x07\x04\x0c(\x00\x00\x00\x00'
p218
tp219
Rp220
sg15
g16
sg17
VWrenganis
p221
sg42
I1
sg19
I19
sg20
(lp222
I17
asg22
(L-2218000000L
I97000000
I0
tp223
sg24
I2
sg26
I109
sg27
(lp224
sg58
I1
sg29
(I0
I0
I0
tp225
sg31
I0
sg32
I16
sg33
I60000
sbsI17
g0
(g82
g5
Ntp226
Rp227
(dp228
g86
I1
sg9
I7
sg10
g11
(S'\x07\xd8\x07\x04\x0c(\x00\x00\x00\x00'
p229
tp230
Rp231
sg15
g16
sg17
VWrenganis 1
p232
sg42
I16
sg19
I19
sg20
(lp233
sg22
(L-2217960000L
I96965000
I0
tp234
sg24
I3
sg26
I115
sg27
(lp235
sg94
I-1
sg29
(I0
I0
I0
tp236
sg31
I0
sg32
I17
sg96
(lp237
sg33
I2
sbsI18
g0
(g47
g5
Ntp238
Rp239
(dp240
g9
I7
sg10
g11
(S'\x07\xd8\x07\x04\x0c(\x00\x00\x00\x00'
p241
tp242
Rp243
sg15
g16
sg17
VLlentim
p244
sg42
I1
sg19
I19
sg20
(lp245
sg22
(I-552000000
L3617000000L
I0
tp246
sg24
I2
sg26
I103
sg27
(lp247
sg29
(I0
I0
I0
tp248
sg31
I0
sg32
I18
sg33
I0
sbsI19
g0
(g47
g5
Ntp249
Rp250
(dp251
g9
I7
sg10
g11
(S'\x07\xd8\x07\x04\x0c(\x00\x00\x00\x00'
p252
tp253
Rp254
sg15
g16
sg17
VCemara
p255
sg42
I1
sg19
I19
sg20
(lp256
sg22
(L3001000000L
I-776000000
I0
tp257
sg24
I2
sg26
I102
sg27
(lp258
sg29
(I0
I0
I0
tp259
sg31
I0
sg32
I19
sg33
I0
sbsI20
g0
(g47
g5
Ntp260
Rp261
(dp262
g9
I7
sg10
g11
(S'\x07\xd8\x07\x04\x0c(\x00\x00\x00\x00'
p263
tp264
Rp265
sg15
g16
sg17
VIlluntara
p266
sg42
I1
sg19
I19
sg20
(lp267
sg22
(L-2852000000L
L-3288000000L
I0
tp268
sg24
I2
sg26
I105
sg27
(lp269
sg29
(I0
I0
I0
tp270
sg31
I0
sg32
I20
sg33
I0
sbsI21
g0
(g47
g5
Ntp271
Rp272
(dp273
g9
I7
sg10
g11
(S'\x07\xd8\x07\x04\x0c(\x00\x00\x00\x00'
p274
tp275
Rp276
sg15
g16
sg17
VCentanis
p277
sg42
I1
sg19
I19
sg20
(lp278
I22
aI23
asg22
(L-2183000000L
L3977000000L
I0
tp279
sg24
I2
sg26
I112
sg27
(lp280
sg58
I2
sg29
(I0
I0
I0
tp281
sg31
I0
sg32
I21
sg33
I120000
sbsI22
g0
(g82
g5
Ntp282
Rp283
(dp284
g86
I1
sg9
I7
sg10
g11
(S'\x07\xd8\x07\x04\x0c(\x00\x00\x00\x00'
p285
tp286
Rp287
sg15
g16
sg17
VCentanis 1
p288
sg42
I21
sg19
I19
sg20
(lp289
sg22
(L-2182960000L
L3976965000L
I0
tp290
sg24
I3
sg26
I114
sg27
(lp291
sg94
I-1
sg29
(I0
I0
I0
tp292
sg31
I0
sg32
I22
sg96
(lp293
sg33
I2
sbsI23
g0
(g82
g5
Ntp294
Rp295
(dp296
g86
I2
sg9
I7
sg10
g11
(S'\x07\xd8\x07\x04\x0c(\x00\x00\x00\x00'
p297
tp298
Rp299
sg15
g16
sg17
VCentanis 2
p300
sg42
I21
sg19
I19
sg20
(lp301
sg22
(L-2182920000L
L3976930000L
I0
tp302
sg24
I3
sg26
I114
sg27
(lp303
sg94
I-1
sg29
(I0
I0
I0
tp304
sg31
I0
sg32
I23
sg96
(lp305
sg33
I2
sbsI24
g0
(g47
g5
Ntp306
Rp307
(dp308
g9
I7
sg10
g11
(S'\x07\xd8\x07\x04\x0c(\x00\x00\x00\x00'
p309
tp310
Rp311
sg15
g16
sg17
VDraconis
p312
sg42
I1
sg19
I19
sg20
(lp313
I25
asg22
(I-1115000000
I1523000000
I0
tp314
sg24
I2
sg26
I108
sg27
(lp315
sg58
I1
sg29
(I0
I0
I0
tp316
sg31
I0
sg32
I24
sg33
I60000
sbsI25
g0
(g82
g5
Ntp317
Rp318
(dp319
g86
I1
sg9
I7
sg10
g11
(S'\x07\xd8\x07\x04\x0c(\x00\x00\x00\x00'
p320
tp321
Rp322
sg15
g16
sg17
VDraconis 1
p323
sg42
I24
sg19
I19
sg20
(lp324
sg22
(I-1114960000
I1522965000
I0
tp325
sg24
I3
sg26
I114
sg27
(lp326
sg94
I-1
sg29
(I0
I0
I0
tp327
sg31
I0
sg32
I25
sg96
(lp328
sg33
I2
sbsI26
g0
(g47
g5
Ntp329
Rp330
(dp331
g9
I7
sg10
g11
(S'\x07\xd8\x07\x04\x0c(\x00\x00\x00\x00'
p332
tp333
Rp334
sg15
g16
sg17
VRintim
p335
sg42
I1
sg19
I19
sg20
(lp336
I27
asg22
(I-1482000000
L-2935000000L
I0
tp337
sg24
I2
sg26
I106
sg27
(lp338
sg58
I1
sg29
(I0
I0
I0
tp339
sg31
I0
sg32
I26
sg33
I60000
sbsI27
g0
(g82
g5
Ntp340
Rp341
(dp342
g86
I1
sg9
I7
sg10
g11
(S'\x07\xd8\x07\x04\x0c(\x00\x00\x00\x00'
p343
tp344
Rp345
sg15
g16
sg17
VRintim 1
p346
sg42
I26
sg19
I19
sg20
(lp347
sg22
(I-1481960000
L-2935035000L
I0
tp348
sg24
I3
sg26
I112
sg27
(lp349
sg94
I-1
sg29
(I0
I0
I0
tp350
sg31
I0
sg32
I27
sg96
(lp351
sg33
I2
sbsI28
g0
(g47
g5
Ntp352
Rp353
(dp354
g9
I7
sg10
g11
(S'\x07\xd8\x07\x04\x0c(\x00\x00\x00\x00'
p355
tp356
Rp357
sg15
g16
sg17
VKiuper Shadow
p358
sg42
I1
sg19
I19
sg20
(lp359
sg22
(I2038000000
L-2366000000L
I0
tp360
sg24
I2
sg26
I109
sg27
(lp361
sg29
(I0
I0
I0
tp362
sg31
I0
sg32
I28
sg33
I0
sbsI29
g0
(g47
g5
Ntp363
Rp364
(dp365
g9
I7
sg10
g11
(S'\x07\xd8\x07\x04\x0c(\x00\x00\x00\x00'
p366
tp367
Rp368
sg15
g16
sg17
VByzantis
p369
sg42
I1
sg19
I19
sg20
(lp370
I30
asg22
(I-1067000000
I-107000000
I0
tp371
sg24
I2
sg26
I108
sg27
(lp372
sg58
I1
sg29
(I0
I0
I0
tp373
sg31
I0
sg32
I29
sg33
I60000
sbsI30
g0
(g82
g5
Ntp374
Rp375
(dp376
g86
I1
sg9
I7
sg10
g11
(S'\x07\xd8\x07\x04\x0c(\x00\x00\x00\x00'
p377
tp378
Rp379
sg15
g16
sg17
VByzantis 1
p380
sg42
I29
sg19
I19
sg20
(lp381
sg22
(I-1066960000
I-107035000
I0
tp382
sg24
I3
sg26
I114
sg27
(lp383
sg94
I-1
sg29
(I0
I0
I0
tp384
sg31
I0
sg32
I30
sg96
(lp385
sg33
I2
sbsI31
g0
(g47
g5
Ntp386
Rp387
(dp388
g9
I7
sg10
g11
(S'\x07\xd8\x07\x04\x0c(\x00\x00\x00\x00'
p389
tp390
Rp391
sg15
g16
sg17
VLanternis
p392
sg42
I1
sg19
I19
sg20
(lp393
sg22
(L-3535000000L
L-3635000000L
I0
tp394
sg24
I2
sg26
I105
sg27
(lp395
sg29
(I0
I0
I0
tp396
sg31
I0
sg32
I31
sg33
I0
sbsI32
g0
(g47
g5
Ntp397
Rp398
(dp399
g9
I7
sg10
g11
(S'\x07\xd8\x07\x04\x0c(\x00\x00\x00\x00'
p400
tp401
Rp402
sg15
g16
sg17
VGielgud
p403
sg42
I1
sg19
I19
sg20
(lp404
I33
aI34
asg22
(I-1602000000
I-1009000000
I0
tp405
sg24
I2
sg26
I111
sg27
(lp406
sg58
I2
sg29
(I0
I0
I0
tp407
sg31
I0
sg32
I32
sg33
I120000
sbsI33
g0
(g82
g5
Ntp408
Rp409
(dp410
g86
I1
sg9
I7
sg10
g11
(S'\x07\xd8\x07\x04\x0c(\x00\x00\x00\x00'
p411
tp412
Rp413
sg15
g16
sg17
VGielgud 1
p414
sg42
I32
sg19
I19
sg20
(lp415
sg22
(I-1601960000
I-1009035000
I0
tp416
sg24
I3
sg26
I113
sg27
(lp417
sg94
I-1
sg29
(I0
I0
I0
tp418
sg31
I0
sg32
I33
sg96
(lp419
sg33
I2
sbsI34
g0
(g82
g5
Ntp420
Rp421
(dp422
g86
I2
sg9
I7
sg10
g11
(S'\x07\xd8\x07\x04\x0c(\x00\x00\x00\x00'
p423
tp424
Rp425
sg15
g16
sg17
VGielgud 2
p426
sg42
I32
sg19
I19
sg20
(lp427
sg22
(I-1601920000
I-1009070000
I0
tp428
sg24
I3
sg26
I113
sg27
(lp429
sg94
I-1
sg29
(I0
I0
I0
tp430
sg31
I0
sg32
I34
sg96
(lp431
sg33
I2
sbsI35
g0
(g47
g5
Ntp432
Rp433
(dp434
g9
I7
sg10
g11
(S'\x07\xd8\x07\x04\x0c(\x00\x00\x00\x00'
p435
tp436
Rp437
sg15
g16
sg17
VCilantarius
p438
sg42
I1
sg19
I19
sg20
(lp439
sg22
(L3489000000L
I-681000000
I0
tp440
sg24
I2
sg26
I107
sg27
(lp441
sg29
(I0
I0
I0
tp442
sg31
I0
sg32
I35
sg33
I0
sbsI36
g0
(g47
g5
Ntp443
Rp444
(dp445
g9
I7
sg10
g11
(S'\x07\xd8\x07\x04\x0c(\x00\x00\x00\x00'
p446
tp447
Rp448
sg15
g16
sg17
VMuir's Gold
p449
sg42
I1
sg19
I19
sg20
(lp450
I37
aI38
asg22
(I678000000
I-491000000
I0
tp451
sg24
I2
sg26
I115
sg27
(lp452
sg58
I2
sg29
(I0
I0
I0
tp453
sg31
I0
sg32
I36
sg33
I120000
sbsI37
g0
(g82
g5
Ntp454
Rp455
(dp456
g86
I1
sg9
I7
sg10
g11
(S'\x07\xd8\x07\x04\x0c(\x00\x00\x00\x00'
p457
tp458
Rp459
sg15
g16
sg17
VMuir's Gold 1
p460
sg42
I36
sg19
I19
sg20
(lp461
sg22
(I678040000
I-491035000
I0
tp462
sg24
I3
sg26
I117
sg27
(lp463
sg94
I-1
sg29
(I0
I0
I0
tp464
sg31
I0
sg32
I37
sg96
(lp465
sg33
I2
sbsI38
g0
(g82
g5
Ntp466
Rp467
(dp468
g86
I2
sg9
I7
sg10
g11
(S'\x07\xd8\x07\x04\x0c(\x00\x00\x00\x00'
p469
tp470
Rp471
sg15
g16
sg17
VMuir's Gold 2
p472
sg42
I36
sg19
I19
sg20
(lp473
sg22
(I678080000
I-491070000
I0
tp474
sg24
I3
sg26
I117
sg27
(lp475
sg94
I-1
sg29
(I0
I0
I0
tp476
sg31
I0
sg32
I38
sg96
(lp477
sg33
I2
sbsI39
g0
(g47
g5
Ntp478
Rp479
(dp480
g9
I7
sg10
g11
(S'\x07\xd8\x07\x04\x0c(\x00\x00\x00\x00'
p481
tp482
Rp483
sg15
g16
sg17
VPlaetais
p484
sg42
I1
sg19
I19
sg20
(lp485
I40
aI41
asg22
(I1905000000
I1906000000
I0
tp486
sg24
I2
sg26
I112
sg27
(lp487
sg58
I2
sg29
(I0
I0
I0
tp488
sg31
I0
sg32
I39
sg33
I120000
sbsI40
g0
(g82
g5
Ntp489
Rp490
(dp491
g86
I1
sg9
I7
sg10
g11
(S'\x07\xd8\x07\x04\x0c(\x00\x00\x00\x00'
p492
tp493
Rp494
sg15
g16
sg17
VPlaetais 1
p495
sg42
I39
sg19
I19
sg20
(lp496
sg22
(I1905040000
I1905965000
I0
tp497
sg24
I3
sg26
I114
sg27
(lp498
sg94
I-1
sg29
(I0
I0
I0
tp499
sg31
I0
sg32
I40
sg96
(lp500
sg33
I2
sbsI41
g0
(g82
g5
Ntp501
Rp502
(dp503
g86
I2
sg9
I7
sg10
g11
(S'\x07\xd8\x07\x04\x0c(\x00\x00\x00\x00'
p504
tp505
Rp506
sg15
g16
sg17
VPlaetais 2
p507
sg42
I39
sg19
I19
sg20
(lp508
sg22
(I1905080000
I1905930000
I0
tp509
sg24
I3
sg26
I114
sg27
(lp510
sg94
I-1
sg29
(I0
I0
I0
tp511
sg31
I0
sg32
I41
sg96
(lp512
sg33
I2
sbsI42
g0
(g47
g5
Ntp513
Rp514
(dp515
g9
I7
sg10
g11
(S'\x07\xd8\x07\x04\x0c(\x00\x00\x00\x00'
p516
tp517
Rp518
sg15
g16
sg17
VCassious' Shadow
p519
sg42
I1
sg19
I19
sg20
(lp520
sg22
(L2158000000L
I-1136000000
I0
tp521
sg24
I2
sg26
I112
sg27
(lp522
sg29
(I0
I0
I0
tp523
sg31
I0
sg32
I42
sg33
I0
sbsI43
g0
(g47
g5
Ntp524
Rp525
(dp526
g9
I7
sg10
g11
(S'\x07\xd8\x07\x04\x0c(\x00\x00\x00\x00'
p527
tp528
Rp529
sg15
g16
sg17
VRumRunner
p530
sg42
I1
sg19
I19
sg20
(lp531
I44
asg22
(I-941000000
I1708000000
I0
tp532
sg24
I2
sg26
I109
sg27
(lp533
sg58
I1
sg29
(I0
I0
I0
tp534
sg31
I0
sg32
I43
sg33
I60000
sbsI44
g0
(g82
g5
Ntp535
Rp536
(dp537
g86
I1
sg9
I7
sg10
g11
(S'\x07\xd8\x07\x04\x0c(\x00\x00\x00\x00'
p538
tp539
Rp540
sg15
g16
sg17
VRumRunner 1
p541
sg42
I43
sg19
I19
sg20
(lp542
sg22
(I-940960000
I1707965000
I0
tp543
sg24
I3
sg26
I115
sg27
(lp544
sg94
I-1
sg29
(I0
I0
I0
tp545
sg31
I0
sg32
I44
sg96
(lp546
sg33
I2
sbsI45
g0
(g47
g5
Ntp547
Rp548
(dp549
g9
I7
sg10
g11
(S'\x07\xd8\x07\x04\x0c(\x00\x00\x00\x00'
p550
tp551
Rp552
sg15
g16
sg17
VTorontis
p553
sg42
I1
sg19
I19
sg20
(lp554
I46
asg22
(L2493000000L
L-3730000000L
I0
tp555
sg24
I2
sg26
I108
sg27
(lp556
sg58
I1
sg29
(I0
I0
I0
tp557
sg31
I0
sg32
I45
sg33
I60000
sbsI46
g0
(g82
g5
Ntp558
Rp559
(dp560
g86
I1
sg9
I7
sg10
g11
(S'\x07\xd8\x07\x04\x0c(\x00\x00\x00\x00'
p561
tp562
Rp563
sg15
g16
sg17
VTorontis 1
p564
sg42
I45
sg19
I19
sg20
(lp565
sg22
(L2493040000L
L-3730035000L
I0
tp566
sg24
I3
sg26
I114
sg27
(lp567
sg94
I-1
sg29
(I0
I0
I0
tp568
sg31
I0
sg32
I46
sg96
(lp569
sg33
I2
sbsI47
g0
(g47
g5
Ntp570
Rp571
(dp572
g9
I7
sg10
g11
(S'\x07\xd8\x07\x04\x0c(\x00\x00\x00\x00'
p573
tp574
Rp575
sg15
g16
sg17
VRadiant Pool
p576
sg42
I1
sg19
I19
sg20
(lp577
I48
asg22
(I188000000
L-2823000000L
I0
tp578
sg24
I2
sg26
I112
sg27
(lp579
sg58
I1
sg29
(I0
I0
I0
tp580
sg31
I0
sg32
I47
sg33
I60000
sbsI48
g0
(g82
g5
Ntp581
Rp582
(dp583
g86
I1
sg9
I7
sg10
g11
(S'\x07\xd8\x07\x04\x0c(\x00\x00\x00\x00'
p584
tp585
Rp586
sg15
g16
sg17
VRadiant Pool 1
p587
sg42
I47
sg19
I19
sg20
(lp588
sg22
(I188040000
L-2823035000L
I0
tp589
sg24
I3
sg26
I118
sg27
(lp590
sg94
I-1
sg29
(I0
I0
I0
tp591
sg31
I0
sg32
I48
sg96
(lp592
sg33
I2
sbsI49
g0
(g47
g5
Ntp593
Rp594
(dp595
g9
I7
sg10
g11
(S'\x07\xd8\x07\x04\x0c(\x00\x00\x00\x00'
p596
tp597
Rp598
sg15
g16
sg17
VKya
p599
sg42
I1
sg19
I19
sg20
(lp600
sg22
(I651000000
L-2410000000L
I0
tp601
sg24
I2
sg26
I99
sg27
(lp602
sg29
(I0
I0
I0
tp603
sg31
I0
sg32
I49
sg33
I0
sbsI50
g0
(g47
g5
Ntp604
Rp605
(dp606
g9
I7
sg10
g11
(S'\x07\xd8\x07\x04\x0c(\x00\x00\x00\x00'
p607
tp608
Rp609
sg15
g16
sg17
VUvaharim
p610
sg42
I1
sg19
I19
sg20
(lp611
I51
asg22
(I-811000000
L-2820000000L
I0
tp612
sg24
I2
sg26
I108
sg27
(lp613
sg58
I1
sg29
(I0
I0
I0
tp614
sg31
I0
sg32
I50
sg33
I60000
sbsI51
g0
(g82
g5
Ntp615
Rp616
(dp617
g86
I1
sg9
I7
sg10
g11
(S'\x07\xd8\x07\x04\x0c(\x00\x00\x00\x00'
p618
tp619
Rp620
sg15
g16
sg17
VUvaharim 1
p621
sg42
I50
sg19
I19
sg20
(lp622
sg22
(I-810960000
L-2820035000L
I0
tp623
sg24
I3
sg26
I114
sg27
(lp624
sg94
I-1
sg29
(I0
I0
I0
tp625
sg31
I0
sg32
I51
sg96
(lp626
sg33
I2
sbsI52
g0
(g47
g5
Ntp627
Rp628
(dp629
g9
I7
sg10
g11
(S'\x07\xd8\x07\x04\x0c(\x00\x00\x00\x00'
p630
tp631
Rp632
sg15
g16
sg17
VVentil
p633
sg42
I1
sg19
I19
sg20
(lp634
I53
asg22
(L-3358000000L
L3950000000L
I0
tp635
sg24
I2
sg26
I106
sg27
(lp636
sg58
I1
sg29
(I0
I0
I0
tp637
sg31
I0
sg32
I52
sg33
I60000
sbsI53
g0
(g82
g5
Ntp638
Rp639
(dp640
g86
I1
sg9
I7
sg10
g11
(S'\x07\xd8\x07\x04\x0c(\x00\x00\x00\x00'
p641
tp642
Rp643
sg15
g16
sg17
VVentil 1
p644
sg42
I52
sg19
I19
sg20
(lp645
sg22
(L-3357960000L
L3949965000L
I0
tp646
sg24
I3
sg26
I112
sg27
(lp647
sg94
I-1
sg29
(I0
I0
I0
tp648
sg31
I0
sg32
I53
sg96
(lp649
sg33
I2
sbsI54
g0
(g47
g5
Ntp650
Rp651
(dp652
S'fleets'
p653
I3
sg9
I7
sg10
g11
(S'\x07\xd8\x07\x04\x0c(\x00\x00\x00\x00'
p654
tp655
Rp656
sg15
g16
sg17
Vtest Star System
p657
sg42
I1
sg19
I19
sg20
(lp658
I55
aI56
aI57
aI58
asg22
(I1499803776
I-255098112
I0
tp659
sg24
I2
sg26
I128
sg27
(lp660
sg58
I1
sg29
(I0
I0
I0
tp661
sg31
I0
sg32
I54
sg33
I80000
sbsI55
g0
(g82
g5
Ntp662
Rp663
(dp664
g86
I1
sg9
I7
sg10
g11
(S'\x07\xd8\x07\x04\x0c(\x00\x00\x00\x00'
p665
tp666
Rp667
sg15
g16
sg17
Vtest Planet
p668
sg42
I54
sg19
I19
sg20
(lp669
sg22
(I1499766596
I-255117112
I0
tp670
sg24
I3
sg26
I139
sg27
(lp671
I0
aI2
asg94
I2
sg29
(I0
I0
I0
tp672
sg31
I0
sg32
I55
sg96
(lp673
(I2
I1
I0
I0
tp674
asg33
I2
sbsI56
g0
(ctp.netlib.objects.ObjectExtra.Fleet
Fleet
p675
g5
Ntp676
Rp677
(dp678
g86
I1
sg9
I7
sg10
g11
(S'\x07\xd8\x07\x04\x0c(\x00\x00\x00\x00'
p679
tp680
Rp681
sg15
g16
sg17
Vtest First Fleet
p682
sg42
I54
sg19
I19
sg20
(lp683
sS'ships'
p684
(lp685
(I2
I1
tp686
asg22
(I1499818136
I-255071372
I0
tp687
sg24
I4
sg26
I152
sg27
(lp688
I0
aI1
aI3
aI4
aI5
asg94
I2
sS'damage'
p689
I0
sg29
(I0
I0
I0
tp690
sg31
I0
sg32
I56
sg33
I2
sbsI57
g0
(g675
g5
Ntp691
Rp692
(dp693
g86
I2
sg9
I7
sg10
g11
(S'\x07\xd8\x07\x04\x0c(\x00\x00\x00\x00'
p694
tp695
Rp696
sg15
g16
sg17
Vtest Second Fleet
p697
sg42
I54
sg19
I19
sg20
(lp698
sg684
(lp699
(I2
I1
tp700
asg22
(I1499812556
I-255119092
I0
tp701
sg24
I4
sg26
I153
sg27
(lp702
I0
aI1
aI3
aI4
aI5
asg94
I2
sg689
I0
sg29
(I0
I0
I0
tp703
sg31
I0
sg32
I57
sg33
I2
sbsI58
g0
(g675
g5
Ntp704
Rp705
(dp706
g86
I3
sg9
I7
sg10
g11
(S'\x07\xd8\x07\x04\x0c(\x00\x00\x00\x00'
p707
tp708
Rp709
sg15
g16
sg17
Vtest Thrid Fleet
p710
sg42
I54
sg19
I19
sg20
(lp711
sg684
(lp712
(I2
I1
tp713
asg22
(I1499769246
I-255113172
I0
tp714
sg24
I4
sg26
I152
sg27
(lp715
I0
aI1
aI3
aI4
aI5
asg94
I2
sg689
I0
sg29
(I0
I0
I0
tp716
sg31
I0
sg32
I58
sg33
I2
sbstp717
Rp718
(dp719
S'times'
p720
(dp721
I0
g14
sI1
g40
sI2
g53
sI3
g65
sI4
g76
sI5
g89
sI6
g103
sI7
g115
sI8
g127
sI9
g139
sI10
g151
sI11
g162
sI12
g174
sI13
g185
sI14
g196
sI15
g208
sI16
g220
sI17
g231
sI18
g243
sI19
g254
sI20
g265
sI21
g276
sI22
g287
sI23
g299
sI24
g311
sI25
g322
sI26
g334
sI27
g345
sI28
g357
sI29
g368
sI30
g379
sI31
g391
sI32
g402
sI33
g413
sI34
g425
sI35
g437
sI36
g448
sI37
g459
sI38
g471
sI39
g483
sI40
g494
sI41
g506
sI42
g518
sI43
g529
sI44
g540
sI45
g552
sI46
g563
sI47
g575
sI48
g586
sI49
g598
sI50
g609
sI51
g620
sI52
g632
sI53
g643
sI54
g656
sI55
g667
sI56
g681
sI57
g696
sI58
g709
ssb.